; Function Attrs: mustprogress nofree norecurse nosync nounwind memory(readwrite, argmem: none, inaccessiblemem: none) uwtable
define hidden noundef i32 @_ZN9vmSymbols8find_sidEPK6Symbol(ptr noundef readnone %0) local_unnamed_addr #5 align 2 {
  %2 = load i32, ptr getelementptr inbounds (i8, ptr @_ZL15vm_symbol_index, i64 4), align 4
  %3 = sext i32 %2 to i64
  %4 = getelementptr inbounds [0 x ptr], ptr @_ZN6Symbol11_vm_symbolsE, i64 0, i64 %3
  %5 = load ptr, ptr %4, align 8
  %.not37 = icmp ult ptr %5, %0
  br i1 %.not37, label %8, label %6

6:                                                ; preds = %1
  %7 = icmp eq ptr %5, %0
  %spec.select = select i1 %7, i32 %2, i32 0
  br label %.loopexit

8:                                                ; preds = %1
  %9 = load i32, ptr getelementptr inbounds (i8, ptr @_ZL15vm_symbol_index, i64 4676), align 4
  %10 = sext i32 %9 to i64
  %11 = getelementptr inbounds [0 x ptr], ptr @_ZN6Symbol11_vm_symbolsE, i64 0, i64 %10
  %12 = load ptr, ptr %11, align 8
  %narrow.not = icmp ugt ptr %12, %0
  br i1 %narrow.not, label %14, label %13

13:                                               ; preds = %8
  %.not38 = icmp eq ptr %12, %0
  %spec.select34 = select i1 %.not38, i32 %9, i32 0
  br label %.loopexit

14:                                               ; preds = %8
  %15 = load i32, ptr @_ZZN9vmSymbols8find_sidEPK6SymbolE8mid_hint, align 4
  br label %16

16:                                               ; preds = %14, %25
  %.043 = phi i32 [ %15, %14 ], [ %29, %25 ]
  %.02842 = phi i32 [ 1168, %14 ], [ %.1, %25 ]
  %.02941 = phi i32 [ 2, %14 ], [ %.130, %25 ]
  %17 = sext i32 %.043 to i64
  %18 = getelementptr inbounds [1170 x i32], ptr @_ZL15vm_symbol_index, i64 0, i64 %17
  %19 = load i32, ptr %18, align 4
  %20 = sext i32 %19 to i64
  %21 = getelementptr inbounds [0 x ptr], ptr @_ZN6Symbol11_vm_symbolsE, i64 0, i64 %20
  %22 = load ptr, ptr %21, align 8
  %23 = icmp eq ptr %22, %0
  br i1 %23, label %24, label %25

24:                                               ; preds = %16
  store i32 %.043, ptr @_ZZN9vmSymbols8find_sidEPK6SymbolE8mid_hint, align 4
  br label %.loopexit

25:                                               ; preds = %16
  %.not39 = icmp ult ptr %22, %0
  %26 = add nsw i32 %.043, -1
  %27 = add nsw i32 %.043, 1
  %.130 = select i1 %.not39, i32 %27, i32 %.02941
  %.1 = select i1 %.not39, i32 %.02842, i32 %26
  %28 = add nsw i32 %.1, %.130
  %29 = sdiv i32 %28, 2
  %.not = icmp slt i32 %.1, %.130
  br i1 %.not, label %.loopexit, label %16, !llvm.loop !10

.loopexit:                                        ; preds = %25, %13, %6, %24
  %.027 = phi i32 [ %19, %24 ], [ %spec.select, %6 ], [ %spec.select34, %13 ], [ 0, %25 ]
  ret i32 %.027
}